target datalayout = "e-m:e-p270:32:32-p271:32:32-p272:64:64-i64:64-i128:128-f80:128-n8:16:32:64-S128"
target triple = "x86_64-pc-linux-gnu"

%struct.FunctionCallInfoBaseData = type { ptr, ptr, ptr, i32, i8, i16, [0 x %struct.NullableDatum] }
%struct.NullableDatum = type { i64, i8 }
%struct.ArrayType = type { i32, i32, i32, i32 }

@.str.1 = private unnamed_addr constant [10 x i8] c"funcapi.c\00", align 1
@.str.21 = private unnamed_addr constant [46 x i8] c"could not determine data type for argument %d\00", align 1
@__func__.extract_variadic_args = private unnamed_addr constant [22 x i8] c"extract_variadic_args\00", align 1

; Function Attrs: inlinehint nounwind uwtable
define internal i64 @PointerGetDatum(ptr noundef %0) #4 {
  %2 = alloca ptr, align 8
  store ptr %0, ptr %2, align 8
  %3 = load ptr, ptr %2, align 8
  %4 = ptrtoint ptr %3 to i64
  ret i64 %4
}

; Function Attrs: inlinehint nounwind uwtable
define internal ptr @DatumGetPointer(i64 noundef %0) #4 {
  %2 = alloca i64, align 8
  store i64 %0, ptr %2, align 8
  %3 = load i64, ptr %2, align 8
  %4 = inttoptr i64 %3 to ptr
  ret ptr %4
}

; Function Attrs: nounwind uwtable
define dso_local i32 @extract_variadic_args(ptr noundef %0, i32 noundef %1, i1 noundef zeroext %2, ptr noundef %3, ptr noundef %4, ptr noundef %5) #0 {
  %7 = alloca i32, align 4
  %8 = alloca ptr, align 8
  %9 = alloca i32, align 4
  %10 = alloca i8, align 1
  %11 = alloca ptr, align 8
  %12 = alloca ptr, align 8
  %13 = alloca ptr, align 8
  %14 = alloca i8, align 1
  %15 = alloca ptr, align 8
  %16 = alloca ptr, align 8
  %17 = alloca ptr, align 8
  %18 = alloca i32, align 4
  %19 = alloca i32, align 4
  %20 = alloca ptr, align 8
  %21 = alloca i32, align 4
  %22 = alloca i8, align 1
  %23 = alloca i8, align 1
  %24 = alloca i16, align 2
  %25 = alloca i32, align 4
  store ptr %0, ptr %8, align 8
  store i32 %1, ptr %9, align 4
  %26 = zext i1 %2 to i8
  store i8 %26, ptr %10, align 1
  store ptr %3, ptr %11, align 8
  store ptr %4, ptr %12, align 8
  store ptr %5, ptr %13, align 8
  call void @llvm.lifetime.start.p0(i64 1, ptr %14) #7
  %27 = load ptr, ptr %8, align 8
  %28 = getelementptr inbounds nuw %struct.FunctionCallInfoBaseData, ptr %27, i32 0, i32 0
  %29 = load ptr, ptr %28, align 8
  %30 = call zeroext i1 @get_fn_expr_variadic(ptr noundef %29)
  %31 = zext i1 %30 to i8
  store i8 %31, ptr %14, align 1
  call void @llvm.lifetime.start.p0(i64 8, ptr %15) #7
  call void @llvm.lifetime.start.p0(i64 8, ptr %16) #7
  call void @llvm.lifetime.start.p0(i64 8, ptr %17) #7
  call void @llvm.lifetime.start.p0(i64 4, ptr %18) #7
  call void @llvm.lifetime.start.p0(i64 4, ptr %19) #7
  %32 = load ptr, ptr %11, align 8
  store ptr null, ptr %32, align 8
  %33 = load ptr, ptr %12, align 8
  store ptr null, ptr %33, align 8
  %34 = load ptr, ptr %13, align 8
  store ptr null, ptr %34, align 8
  %35 = load i8, ptr %14, align 1, !range !4, !noundef !5
  %36 = trunc i8 %35 to i1
  br i1 %36, label %37, label %89

37:                                               ; preds = %6
  call void @llvm.lifetime.start.p0(i64 8, ptr %20) #7
  call void @llvm.lifetime.start.p0(i64 4, ptr %21) #7
  call void @llvm.lifetime.start.p0(i64 1, ptr %22) #7
  call void @llvm.lifetime.start.p0(i64 1, ptr %23) #7
  call void @llvm.lifetime.start.p0(i64 2, ptr %24) #7
  %38 = load ptr, ptr %8, align 8
  %39 = getelementptr inbounds nuw %struct.FunctionCallInfoBaseData, ptr %38, i32 0, i32 6
  %40 = load i32, ptr %9, align 4
  %41 = sext i32 %40 to i64
  %42 = getelementptr inbounds [0 x %struct.NullableDatum], ptr %39, i64 0, i64 %41
  %43 = getelementptr inbounds nuw %struct.NullableDatum, ptr %42, i32 0, i32 1
  %44 = load i8, ptr %43, align 8, !range !4, !noundef !5
  %45 = trunc i8 %44 to i1
  br i1 %45, label %46, label %47

46:                                               ; preds = %37
  store i32 -1, ptr %7, align 4
  store i32 1, ptr %25, align 4
  br label %86

47:                                               ; preds = %37
  %48 = load ptr, ptr %8, align 8
  %49 = getelementptr inbounds nuw %struct.FunctionCallInfoBaseData, ptr %48, i32 0, i32 6
  %50 = load i32, ptr %9, align 4
  %51 = sext i32 %50 to i64
  %52 = getelementptr inbounds [0 x %struct.NullableDatum], ptr %49, i64 0, i64 %51
  %53 = getelementptr inbounds nuw %struct.NullableDatum, ptr %52, i32 0, i32 0
  %54 = load i64, ptr %53, align 8
  %55 = call ptr @DatumGetPointer(i64 noundef %54)
  %56 = call ptr @pg_detoast_datum(ptr noundef %55)
  store ptr %56, ptr %20, align 8
  %57 = load ptr, ptr %20, align 8
  %58 = getelementptr inbounds nuw %struct.ArrayType, ptr %57, i32 0, i32 3
  %59 = load i32, ptr %58, align 4
  store i32 %59, ptr %21, align 4
  %60 = load i32, ptr %21, align 4
  call void @get_typlenbyvalalign(i32 noundef %60, ptr noundef %24, ptr noundef %22, ptr noundef %23)
  %61 = load ptr, ptr %20, align 8
  %62 = load i32, ptr %21, align 4
  %63 = load i16, ptr %24, align 2
  %64 = sext i16 %63 to i32
  %65 = load i8, ptr %22, align 1, !range !4, !noundef !5
  %66 = trunc i8 %65 to i1
  %67 = load i8, ptr %23, align 1
  call void @deconstruct_array(ptr noundef %61, i32 noundef %62, i32 noundef %64, i1 noundef zeroext %66, i8 noundef signext %67, ptr noundef %15, ptr noundef %16, ptr noundef %18)
  %68 = load i32, ptr %18, align 4
  %69 = sext i32 %68 to i64
  %70 = mul i64 %69, 4
  %71 = call ptr @palloc0(i64 noundef %70)
  store ptr %71, ptr %17, align 8
  store i32 0, ptr %19, align 4
  br label %72

72:                                               ; preds = %82, %47
  %73 = load i32, ptr %19, align 4
  %74 = load i32, ptr %18, align 4
  %75 = icmp slt i32 %73, %74
  br i1 %75, label %76, label %85

76:                                               ; preds = %72
  %77 = load i32, ptr %21, align 4
  %78 = load ptr, ptr %17, align 8
  %79 = load i32, ptr %19, align 4
  %80 = sext i32 %79 to i64
  %81 = getelementptr inbounds i32, ptr %78, i64 %80
  store i32 %77, ptr %81, align 4
  br label %82

82:                                               ; preds = %76
  %83 = load i32, ptr %19, align 4
  %84 = add i32 %83, 1
  store i32 %84, ptr %19, align 4
  br label %72, !llvm.loop !16

85:                                               ; preds = %72
  store i32 0, ptr %25, align 4
  br label %86

86:                                               ; preds = %85, %46
  call void @llvm.lifetime.end.p0(i64 2, ptr %24) #7
  call void @llvm.lifetime.end.p0(i64 1, ptr %23) #7
  call void @llvm.lifetime.end.p0(i64 1, ptr %22) #7
  call void @llvm.lifetime.end.p0(i64 4, ptr %21) #7
  call void @llvm.lifetime.end.p0(i64 8, ptr %20) #7
  %87 = load i32, ptr %25, align 4
  switch i32 %87, label %252 [
    i32 0, label %88
  ]

88:                                               ; preds = %86
  br label %244

89:                                               ; preds = %6
  %90 = load ptr, ptr %8, align 8
  %91 = getelementptr inbounds nuw %struct.FunctionCallInfoBaseData, ptr %90, i32 0, i32 5
  %92 = load i16, ptr %91, align 2
  %93 = sext i16 %92 to i32
  %94 = load i32, ptr %9, align 4
  %95 = sub i32 %93, %94
  store i32 %95, ptr %18, align 4
  %96 = load i32, ptr %18, align 4
  %97 = sext i32 %96 to i64
  %98 = mul i64 %97, 1
  %99 = call ptr @palloc0(i64 noundef %98)
  store ptr %99, ptr %16, align 8
  %100 = load i32, ptr %18, align 4
  %101 = sext i32 %100 to i64
  %102 = mul i64 %101, 8
  %103 = call ptr @palloc0(i64 noundef %102)
  store ptr %103, ptr %15, align 8
  %104 = load i32, ptr %18, align 4
  %105 = sext i32 %104 to i64
  %106 = mul i64 %105, 4
  %107 = call ptr @palloc0(i64 noundef %106)
  store ptr %107, ptr %17, align 8
  store i32 0, ptr %19, align 4
  br label %108

108:                                              ; preds = %240, %89
  %109 = load i32, ptr %19, align 4
  %110 = load i32, ptr %18, align 4
  %111 = icmp slt i32 %109, %110
  br i1 %111, label %112, label %243

112:                                              ; preds = %108
  %113 = load ptr, ptr %8, align 8
  %114 = getelementptr inbounds nuw %struct.FunctionCallInfoBaseData, ptr %113, i32 0, i32 6
  %115 = load i32, ptr %19, align 4
  %116 = load i32, ptr %9, align 4
  %117 = add i32 %115, %116
  %118 = sext i32 %117 to i64
  %119 = getelementptr inbounds [0 x %struct.NullableDatum], ptr %114, i64 0, i64 %118
  %120 = getelementptr inbounds nuw %struct.NullableDatum, ptr %119, i32 0, i32 1
  %121 = load i8, ptr %120, align 8, !range !4, !noundef !5
  %122 = trunc i8 %121 to i1
  %123 = load ptr, ptr %16, align 8
  %124 = load i32, ptr %19, align 4
  %125 = sext i32 %124 to i64
  %126 = getelementptr inbounds i8, ptr %123, i64 %125
  %127 = zext i1 %122 to i8
  store i8 %127, ptr %126, align 1
  %128 = load ptr, ptr %8, align 8
  %129 = getelementptr inbounds nuw %struct.FunctionCallInfoBaseData, ptr %128, i32 0, i32 0
  %130 = load ptr, ptr %129, align 8
  %131 = load i32, ptr %19, align 4
  %132 = load i32, ptr %9, align 4
  %133 = add i32 %131, %132
  %134 = call i32 @get_fn_expr_argtype(ptr noundef %130, i32 noundef %133)
  %135 = load ptr, ptr %17, align 8
  %136 = load i32, ptr %19, align 4
  %137 = sext i32 %136 to i64
  %138 = getelementptr inbounds i32, ptr %135, i64 %137
  store i32 %134, ptr %138, align 4
  %139 = load i8, ptr %10, align 1, !range !4, !noundef !5
  %140 = trunc i8 %139 to i1
  br i1 %140, label %141, label %194

141:                                              ; preds = %112
  %142 = load ptr, ptr %17, align 8
  %143 = load i32, ptr %19, align 4
  %144 = sext i32 %143 to i64
  %145 = getelementptr inbounds i32, ptr %142, i64 %144
  %146 = load i32, ptr %145, align 4
  %147 = icmp eq i32 %146, 705
  br i1 %147, label %148, label %194

148:                                              ; preds = %141
  %149 = load ptr, ptr %8, align 8
  %150 = getelementptr inbounds nuw %struct.FunctionCallInfoBaseData, ptr %149, i32 0, i32 0
  %151 = load ptr, ptr %150, align 8
  %152 = load i32, ptr %19, align 4
  %153 = load i32, ptr %9, align 4
  %154 = add i32 %152, %153
  %155 = call zeroext i1 @get_fn_expr_arg_stable(ptr noundef %151, i32 noundef %154)
  br i1 %155, label %156, label %194

156:                                              ; preds = %148
  %157 = load ptr, ptr %17, align 8
  %158 = load i32, ptr %19, align 4
  %159 = sext i32 %158 to i64
  %160 = getelementptr inbounds i32, ptr %157, i64 %159
  store i32 25, ptr %160, align 4
  %161 = load ptr, ptr %8, align 8
  %162 = getelementptr inbounds nuw %struct.FunctionCallInfoBaseData, ptr %161, i32 0, i32 6
  %163 = load i32, ptr %19, align 4
  %164 = load i32, ptr %9, align 4
  %165 = add i32 %163, %164
  %166 = sext i32 %165 to i64
  %167 = getelementptr inbounds [0 x %struct.NullableDatum], ptr %162, i64 0, i64 %166
  %168 = getelementptr inbounds nuw %struct.NullableDatum, ptr %167, i32 0, i32 1
  %169 = load i8, ptr %168, align 8, !range !4, !noundef !5
  %170 = trunc i8 %169 to i1
  br i1 %170, label %171, label %176

171:                                              ; preds = %156
  %172 = load ptr, ptr %15, align 8
  %173 = load i32, ptr %19, align 4
  %174 = sext i32 %173 to i64
  %175 = getelementptr inbounds i64, ptr %172, i64 %174
  store i64 0, ptr %175, align 8
  br label %193

176:                                              ; preds = %156
  %177 = load ptr, ptr %8, align 8
  %178 = getelementptr inbounds nuw %struct.FunctionCallInfoBaseData, ptr %177, i32 0, i32 6
  %179 = load i32, ptr %19, align 4
  %180 = load i32, ptr %9, align 4
  %181 = add i32 %179, %180
  %182 = sext i32 %181 to i64
  %183 = getelementptr inbounds [0 x %struct.NullableDatum], ptr %178, i64 0, i64 %182
  %184 = getelementptr inbounds nuw %struct.NullableDatum, ptr %183, i32 0, i32 0
  %185 = load i64, ptr %184, align 8
  %186 = call ptr @DatumGetPointer(i64 noundef %185)
  %187 = call ptr @cstring_to_text(ptr noundef %186)
  %188 = call i64 @PointerGetDatum(ptr noundef %187)
  %189 = load ptr, ptr %15, align 8
  %190 = load i32, ptr %19, align 4
  %191 = sext i32 %190 to i64
  %192 = getelementptr inbounds i64, ptr %189, i64 %191
  store i64 %188, ptr %192, align 8
  br label %193

193:                                              ; preds = %176, %171
  br label %208

194:                                              ; preds = %148, %141, %112
  %195 = load ptr, ptr %8, align 8
  %196 = getelementptr inbounds nuw %struct.FunctionCallInfoBaseData, ptr %195, i32 0, i32 6
  %197 = load i32, ptr %19, align 4
  %198 = load i32, ptr %9, align 4
  %199 = add i32 %197, %198
  %200 = sext i32 %199 to i64
  %201 = getelementptr inbounds [0 x %struct.NullableDatum], ptr %196, i64 0, i64 %200
  %202 = getelementptr inbounds nuw %struct.NullableDatum, ptr %201, i32 0, i32 0
  %203 = load i64, ptr %202, align 8
  %204 = load ptr, ptr %15, align 8
  %205 = load i32, ptr %19, align 4
  %206 = sext i32 %205 to i64
  %207 = getelementptr inbounds i64, ptr %204, i64 %206
  store i64 %203, ptr %207, align 8
  br label %208

208:                                              ; preds = %194, %193
  %209 = load ptr, ptr %17, align 8
  %210 = load i32, ptr %19, align 4
  %211 = sext i32 %210 to i64
  %212 = getelementptr inbounds i32, ptr %209, i64 %211
  %213 = load i32, ptr %212, align 4
  %214 = icmp ne i32 %213, 0
  br i1 %214, label %215, label %225

215:                                              ; preds = %208
  %216 = load i8, ptr %10, align 1, !range !4, !noundef !5
  %217 = trunc i8 %216 to i1
  br i1 %217, label %218, label %239

218:                                              ; preds = %215
  %219 = load ptr, ptr %17, align 8
  %220 = load i32, ptr %19, align 4
  %221 = sext i32 %220 to i64
  %222 = getelementptr inbounds i32, ptr %219, i64 %221
  %223 = load i32, ptr %222, align 4
  %224 = icmp eq i32 %223, 705
  br i1 %224, label %225, label %239

225:                                              ; preds = %218, %208
  br label %226

226:                                              ; preds = %225
  br i1 true, label %227, label %229

227:                                              ; preds = %226
  %228 = call zeroext i1 @errstart_cold(i32 noundef 21, ptr noundef null) #8
  br i1 %228, label %231, label %236

229:                                              ; preds = %226
  %230 = call zeroext i1 @errstart(i32 noundef 21, ptr noundef null)
  br i1 %230, label %231, label %236

231:                                              ; preds = %229, %227
  %232 = call i32 @errcode(i32 noundef 50856066)
  %233 = load i32, ptr %19, align 4
  %234 = add i32 %233, 1
  %235 = call i32 (ptr, ...) @errmsg(ptr noundef @.str.21, i32 noundef %234)
  call void @errfinish(ptr noundef @.str.1, i32 noundef 2091, ptr noundef @__func__.extract_variadic_args)
  br label %236

236:                                              ; preds = %231, %229, %227
  unreachable

237:                                              ; No predecessors!
  br label %238

238:                                              ; preds = %237
  br label %239

239:                                              ; preds = %238, %218, %215
  br label %240

240:                                              ; preds = %239
  %241 = load i32, ptr %19, align 4
  %242 = add i32 %241, 1
  store i32 %242, ptr %19, align 4
  br label %108, !llvm.loop !17

243:                                              ; preds = %108
  br label %244

244:                                              ; preds = %243, %88
  %245 = load ptr, ptr %15, align 8
  %246 = load ptr, ptr %11, align 8
  store ptr %245, ptr %246, align 8
  %247 = load ptr, ptr %16, align 8
  %248 = load ptr, ptr %13, align 8
  store ptr %247, ptr %248, align 8
  %249 = load ptr, ptr %17, align 8
  %250 = load ptr, ptr %12, align 8
  store ptr %249, ptr %250, align 8
  %251 = load i32, ptr %18, align 4
  store i32 %251, ptr %7, align 4
  store i32 1, ptr %25, align 4
  br label %252

252:                                              ; preds = %244, %86
  call void @llvm.lifetime.end.p0(i64 4, ptr %19) #7
  call void @llvm.lifetime.end.p0(i64 4, ptr %18) #7
  call void @llvm.lifetime.end.p0(i64 8, ptr %17) #7
  call void @llvm.lifetime.end.p0(i64 8, ptr %16) #7
  call void @llvm.lifetime.end.p0(i64 8, ptr %15) #7
  call void @llvm.lifetime.end.p0(i64 1, ptr %14) #7
  %253 = load i32, ptr %7, align 4
  ret i32 %253
}