; Function Attrs: nounwind uwtable
define dso_local i32 @extract_variadic_args(ptr noundef readonly captures(none) %0, i32 noundef %1, i1 noundef zeroext %2, ptr noundef writeonly captures(none) initializes((0, 8)) %3, ptr noundef writeonly captures(none) initializes((0, 8)) %4, ptr noundef writeonly captures(none) initializes((0, 8)) %5) local_unnamed_addr #0 {
  %7 = alloca ptr, align 8
  %8 = alloca ptr, align 8
  %9 = alloca i32, align 4
  %10 = alloca i8, align 1
  %11 = alloca i8, align 1
  %12 = alloca i16, align 2
  %13 = load ptr, ptr %0, align 8
  %14 = tail call zeroext i1 @get_fn_expr_variadic(ptr noundef %13) #8
  call void @llvm.lifetime.start.p0(i64 8, ptr nonnull %7) #8
  call void @llvm.lifetime.start.p0(i64 8, ptr nonnull %8) #8
  call void @llvm.lifetime.start.p0(i64 4, ptr nonnull %9) #8
  store ptr null, ptr %3, align 8
  store ptr null, ptr %4, align 8
  store ptr null, ptr %5, align 8
  br i1 %14, label %15, label %44

15:                                               ; preds = %6
  call void @llvm.lifetime.start.p0(i64 1, ptr nonnull %10) #8
  call void @llvm.lifetime.start.p0(i64 1, ptr nonnull %11) #8
  call void @llvm.lifetime.start.p0(i64 2, ptr nonnull %12) #8
  %16 = getelementptr inbounds nuw i8, ptr %0, i64 32
  %17 = sext i32 %1 to i64
  %18 = getelementptr inbounds [0 x %struct.NullableDatum], ptr %16, i64 0, i64 %17
  %19 = getelementptr inbounds nuw i8, ptr %18, i64 8
  %20 = load i8, ptr %19, align 8, !range !9, !noundef !10
  %21 = trunc nuw i8 %20 to i1
  br i1 %21, label %.thread, label %22

.thread:                                          ; preds = %15
  call void @llvm.lifetime.end.p0(i64 2, ptr nonnull %12) #8
  call void @llvm.lifetime.end.p0(i64 1, ptr nonnull %11) #8
  call void @llvm.lifetime.end.p0(i64 1, ptr nonnull %10) #8
  br label %108

22:                                               ; preds = %15
  %23 = load i64, ptr %18, align 8
  %24 = inttoptr i64 %23 to ptr
  %25 = tail call ptr @pg_detoast_datum(ptr noundef %24) #8
  %26 = getelementptr inbounds nuw i8, ptr %25, i64 12
  %27 = load i32, ptr %26, align 4
  call void @get_typlenbyvalalign(i32 noundef %27, ptr noundef nonnull %12, ptr noundef nonnull %10, ptr noundef nonnull %11) #8
  %28 = load i16, ptr %12, align 2
  %29 = sext i16 %28 to i32
  %30 = load i8, ptr %10, align 1, !range !9, !noundef !10
  %31 = trunc nuw i8 %30 to i1
  %32 = load i8, ptr %11, align 1
  call void @deconstruct_array(ptr noundef %25, i32 noundef %27, i32 noundef %29, i1 noundef zeroext %31, i8 noundef signext %32, ptr noundef nonnull %7, ptr noundef nonnull %8, ptr noundef nonnull %9) #8
  %33 = load i32, ptr %9, align 4
  %34 = sext i32 %33 to i64
  %35 = shl nsw i64 %34, 2
  %36 = call ptr @palloc0(i64 noundef %35) #8
  %37 = load i32, ptr %9, align 4
  %38 = icmp sgt i32 %37, 0
  br i1 %38, label %.lr.ph74, label %._crit_edge

.lr.ph74:                                         ; preds = %22, %.lr.ph74
  %indvars.iv83 = phi i64 [ %indvars.iv.next84, %.lr.ph74 ], [ 0, %22 ]
  %39 = getelementptr inbounds nuw i32, ptr %36, i64 %indvars.iv83
  store i32 %27, ptr %39, align 4
  %indvars.iv.next84 = add nuw nsw i64 %indvars.iv83, 1
  %40 = load i32, ptr %9, align 4
  %41 = sext i32 %40 to i64
  %42 = icmp slt i64 %indvars.iv.next84, %41
  br i1 %42, label %.lr.ph74, label %._crit_edge, !llvm.loop !19

._crit_edge:                                      ; preds = %.lr.ph74, %22
  %43 = phi i32 [ %37, %22 ], [ %40, %.lr.ph74 ]
  call void @llvm.lifetime.end.p0(i64 2, ptr nonnull %12) #8
  call void @llvm.lifetime.end.p0(i64 1, ptr nonnull %11) #8
  call void @llvm.lifetime.end.p0(i64 1, ptr nonnull %10) #8
  %.pre = load ptr, ptr %7, align 8
  %.pre86 = load ptr, ptr %8, align 8
  br label %.loopexit

44:                                               ; preds = %6
  %45 = getelementptr inbounds nuw i8, ptr %0, i64 30
  %46 = load i16, ptr %45, align 2
  %47 = sext i16 %46 to i32
  %48 = sub i32 %47, %1
  %49 = sext i32 %48 to i64
  %50 = tail call ptr @palloc0(i64 noundef %49) #8
  %51 = shl nsw i64 %49, 3
  %52 = tail call ptr @palloc0(i64 noundef %51) #8
  %53 = shl nsw i64 %49, 2
  %54 = tail call ptr @palloc0(i64 noundef %53) #8
  %55 = icmp sgt i32 %48, 0
  br i1 %55, label %.lr.ph, label %.loopexit

.lr.ph:                                           ; preds = %44
  %56 = getelementptr inbounds nuw i8, ptr %0, i64 32
  br i1 %2, label %.lr.ph.split, label %.lr.ph.split.us

.lr.ph.split.us:                                  ; preds = %.lr.ph, %70
  %indvars.iv = phi i64 [ %indvars.iv.next, %70 ], [ 0, %.lr.ph ]
  %57 = trunc nuw nsw i64 %indvars.iv to i32
  %58 = add i32 %1, %57
  %59 = sext i32 %58 to i64
  %60 = getelementptr inbounds [0 x %struct.NullableDatum], ptr %56, i64 0, i64 %59
  %61 = getelementptr inbounds nuw i8, ptr %60, i64 8
  %62 = load i8, ptr %61, align 8, !range !9, !noundef !10
  %63 = getelementptr inbounds nuw i8, ptr %50, i64 %indvars.iv
  store i8 %62, ptr %63, align 1
  %64 = load ptr, ptr %0, align 8
  %65 = tail call i32 @get_fn_expr_argtype(ptr noundef %64, i32 noundef %58) #8
  %66 = getelementptr inbounds nuw i32, ptr %54, i64 %indvars.iv
  store i32 %65, ptr %66, align 4
  %67 = load i64, ptr %60, align 8
  %68 = getelementptr inbounds nuw i64, ptr %52, i64 %indvars.iv
  store i64 %67, ptr %68, align 8
  %69 = load i32, ptr %66, align 4
  %.not.us = icmp eq i32 %69, 0
  br i1 %.not.us, label %.split.us, label %70

70:                                               ; preds = %.lr.ph.split.us
  %indvars.iv.next = add nuw nsw i64 %indvars.iv, 1
  %71 = icmp slt i64 %indvars.iv.next, %49
  br i1 %71, label %.lr.ph.split.us, label %.loopexit, !llvm.loop !20

.lr.ph.split:                                     ; preds = %.lr.ph, %103
  %indvars.iv80 = phi i64 [ %indvars.iv.next81, %103 ], [ 0, %.lr.ph ]
  %72 = trunc nuw nsw i64 %indvars.iv80 to i32
  %73 = add i32 %1, %72
  %74 = sext i32 %73 to i64
  %75 = getelementptr inbounds [0 x %struct.NullableDatum], ptr %56, i64 0, i64 %74
  %76 = getelementptr inbounds nuw i8, ptr %75, i64 8
  %77 = load i8, ptr %76, align 8, !range !9, !noundef !10
  %78 = getelementptr inbounds nuw i8, ptr %50, i64 %indvars.iv80
  store i8 %77, ptr %78, align 1
  %79 = load ptr, ptr %0, align 8
  %80 = tail call i32 @get_fn_expr_argtype(ptr noundef %79, i32 noundef %73) #8
  %81 = getelementptr inbounds nuw i32, ptr %54, i64 %indvars.iv80
  store i32 %80, ptr %81, align 4
  %82 = icmp eq i32 %80, 705
  br i1 %82, label %83, label %94

83:                                               ; preds = %.lr.ph.split
  %84 = load ptr, ptr %0, align 8
  %85 = tail call zeroext i1 @get_fn_expr_arg_stable(ptr noundef %84, i32 noundef %73) #8
  br i1 %85, label %86, label %94

86:                                               ; preds = %83
  store i32 25, ptr %81, align 4
  %87 = load i8, ptr %76, align 8, !range !9, !noundef !10
  %88 = trunc nuw i8 %87 to i1
  br i1 %88, label %96, label %89

89:                                               ; preds = %86
  %90 = load i64, ptr %75, align 8
  %91 = inttoptr i64 %90 to ptr
  %92 = tail call ptr @cstring_to_text(ptr noundef %91) #8
  %93 = ptrtoint ptr %92 to i64
  br label %96

94:                                               ; preds = %83, %.lr.ph.split
  %95 = load i64, ptr %75, align 8
  br label %96

96:                                               ; preds = %86, %89, %94
  %.sink = phi i64 [ %93, %89 ], [ %95, %94 ], [ 0, %86 ]
  %97 = getelementptr inbounds nuw i64, ptr %52, i64 %indvars.iv80
  store i64 %.sink, ptr %97, align 8
  %98 = load i32, ptr %81, align 4
  switch i32 %98, label %103 [
    i32 705, label %.split.us
    i32 0, label %.split.us
  ]

.split.us:                                        ; preds = %.lr.ph.split.us, %96, %96
  %.us-phi = phi i32 [ %72, %96 ], [ %72, %96 ], [ %57, %.lr.ph.split.us ]
  %99 = tail call zeroext i1 @errstart_cold(i32 noundef 21, ptr noundef null) #9
  tail call void @llvm.assume(i1 %99)
  %100 = tail call i32 @errcode(i32 noundef 50856066) #8
  %101 = add nuw nsw i32 %.us-phi, 1
  %102 = tail call i32 (ptr, ...) @errmsg(ptr noundef nonnull @.str.21, i32 noundef %101) #8
  tail call void @errfinish(ptr noundef nonnull @.str.1, i32 noundef 2091, ptr noundef nonnull @__func__.extract_variadic_args) #8
  unreachable

103:                                              ; preds = %96
  %indvars.iv.next81 = add nuw nsw i64 %indvars.iv80, 1
  %104 = icmp slt i64 %indvars.iv.next81, %49
  br i1 %104, label %.lr.ph.split, label %.loopexit, !llvm.loop !20

.loopexit:                                        ; preds = %70, %103, %44, %._crit_edge
  %105 = phi i32 [ %43, %._crit_edge ], [ %48, %44 ], [ %48, %103 ], [ %48, %70 ]
  %106 = phi ptr [ %.pre86, %._crit_edge ], [ %50, %44 ], [ %50, %103 ], [ %50, %70 ]
  %107 = phi ptr [ %.pre, %._crit_edge ], [ %52, %44 ], [ %52, %103 ], [ %52, %70 ]
  %.164 = phi ptr [ %36, %._crit_edge ], [ %54, %44 ], [ %54, %103 ], [ %54, %70 ]
  store ptr %107, ptr %3, align 8
  store ptr %106, ptr %5, align 8
  store ptr %.164, ptr %4, align 8
  br label %108

108:                                              ; preds = %.thread, %.loopexit
  %.1 = phi i32 [ %105, %.loopexit ], [ -1, %.thread ]
  call void @llvm.lifetime.end.p0(i64 4, ptr nonnull %9) #8
  call void @llvm.lifetime.end.p0(i64 8, ptr nonnull %8) #8
  call void @llvm.lifetime.end.p0(i64 8, ptr nonnull %7) #8
  ret i32 %.1
}